target datalayout = "e-m:e-p270:32:32-p271:32:32-p272:64:64-i64:64-i128:128-f80:128-n8:16:32:64-S128"
target triple = "x86_64-pc-linux-gnu"

%struct.aclSelector = type { i32, [16 x i64], ptr, ptr, ptr, ptr }
%struct.list = type { ptr, ptr, ptr, ptr, ptr, i64 }
%struct.listNode = type { ptr, ptr, ptr }
%struct.listIter = type { ptr, i32 }

@.str.40 = private unnamed_addr constant [2 x i8] c" \00", align 1
@.str.61 = private unnamed_addr constant [3 x i8] c"~*\00", align 1
@.str.63 = private unnamed_addr constant [3 x i8] c"&*\00", align 1
@.str.130 = private unnamed_addr constant [9 x i8] c"commands\00", align 1
@.str.131 = private unnamed_addr constant [5 x i8] c"keys\00", align 1
@.str.132 = private unnamed_addr constant [9 x i8] c"channels\00", align 1
@.str.133 = private unnamed_addr constant [4 x i8] c"&%S\00", align 1

; Function Attrs: nounwind uwtable
define dso_local i32 @aclAddReplySelectorDescription(ptr noundef %0, ptr noundef %1) #0 {
  %3 = alloca ptr, align 8
  %4 = alloca ptr, align 8
  %5 = alloca %struct.listIter, align 8
  %6 = alloca ptr, align 8
  %7 = alloca ptr, align 8
  %8 = alloca ptr, align 8
  %9 = alloca ptr, align 8
  %10 = alloca ptr, align 8
  %11 = alloca ptr, align 8
  store ptr %0, ptr %3, align 8, !tbaa !95
  store ptr %1, ptr %4, align 8, !tbaa !32
  call void @llvm.lifetime.start.p0(i64 16, ptr %5) #14
  call void @llvm.lifetime.start.p0(i64 8, ptr %6) #14
  %12 = load ptr, ptr %3, align 8, !tbaa !95
  call void @addReplyBulkCString(ptr noundef %12, ptr noundef @.str.130)
  call void @llvm.lifetime.start.p0(i64 8, ptr %7) #14
  %13 = load ptr, ptr %4, align 8, !tbaa !32
  %14 = call ptr @ACLDescribeSelectorCommandRules(ptr noundef %13)
  store ptr %14, ptr %7, align 8, !tbaa !5
  %15 = load ptr, ptr %3, align 8, !tbaa !95
  %16 = load ptr, ptr %7, align 8, !tbaa !5
  call void @addReplyBulkSds(ptr noundef %15, ptr noundef %16)
  %17 = load ptr, ptr %3, align 8, !tbaa !95
  call void @addReplyBulkCString(ptr noundef %17, ptr noundef @.str.131)
  %18 = load ptr, ptr %4, align 8, !tbaa !32
  %19 = getelementptr inbounds nuw %struct.aclSelector, ptr %18, i32 0, i32 0
  %20 = load i32, ptr %19, align 8, !tbaa !64
  %21 = and i32 %20, 2
  %22 = icmp ne i32 %21, 0
  br i1 %22, label %23, label %25

23:                                               ; preds = %2
  %24 = load ptr, ptr %3, align 8, !tbaa !95
  call void @addReplyBulkCBuffer(ptr noundef %24, ptr noundef @.str.61, i64 noundef 2)
  br label %54

25:                                               ; preds = %2
  call void @llvm.lifetime.start.p0(i64 8, ptr %8) #14
  %26 = call ptr @sdsempty()
  store ptr %26, ptr %8, align 8, !tbaa !5
  %27 = load ptr, ptr %4, align 8, !tbaa !32
  %28 = getelementptr inbounds nuw %struct.aclSelector, ptr %27, i32 0, i32 3
  %29 = load ptr, ptr %28, align 8, !tbaa !67
  call void @listRewind(ptr noundef %29, ptr noundef %5)
  br label %30

30:                                               ; preds = %47, %25
  %31 = call ptr @listNext(ptr noundef %5)
  store ptr %31, ptr %6, align 8, !tbaa !94
  %32 = icmp ne ptr %31, null
  br i1 %32, label %33, label %51

33:                                               ; preds = %30
  call void @llvm.lifetime.start.p0(i64 8, ptr %9) #14
  %34 = load ptr, ptr %6, align 8, !tbaa !94
  %35 = getelementptr inbounds nuw %struct.listNode, ptr %34, i32 0, i32 2
  %36 = load ptr, ptr %35, align 8, !tbaa !86
  store ptr %36, ptr %9, align 8, !tbaa !32
  %37 = load ptr, ptr %6, align 8, !tbaa !94
  %38 = load ptr, ptr %4, align 8, !tbaa !32
  %39 = getelementptr inbounds nuw %struct.aclSelector, ptr %38, i32 0, i32 3
  %40 = load ptr, ptr %39, align 8, !tbaa !67
  %41 = getelementptr inbounds nuw %struct.list, ptr %40, i32 0, i32 0
  %42 = load ptr, ptr %41, align 8, !tbaa !85
  %43 = icmp ne ptr %37, %42
  br i1 %43, label %44, label %47

44:                                               ; preds = %33
  %45 = load ptr, ptr %8, align 8, !tbaa !5
  %46 = call ptr @sdscat(ptr noundef %45, ptr noundef @.str.40)
  store ptr %46, ptr %8, align 8, !tbaa !5
  br label %47

47:                                               ; preds = %44, %33
  %48 = load ptr, ptr %8, align 8, !tbaa !5
  %49 = load ptr, ptr %9, align 8, !tbaa !32
  %50 = call ptr @sdsCatPatternString(ptr noundef %48, ptr noundef %49)
  store ptr %50, ptr %8, align 8, !tbaa !5
  call void @llvm.lifetime.end.p0(i64 8, ptr %9) #14
  br label %30, !llvm.loop !236

51:                                               ; preds = %30
  %52 = load ptr, ptr %3, align 8, !tbaa !95
  %53 = load ptr, ptr %8, align 8, !tbaa !5
  call void @addReplyBulkSds(ptr noundef %52, ptr noundef %53)
  call void @llvm.lifetime.end.p0(i64 8, ptr %8) #14
  br label %54

54:                                               ; preds = %51, %23
  %55 = load ptr, ptr %3, align 8, !tbaa !95
  call void @addReplyBulkCString(ptr noundef %55, ptr noundef @.str.132)
  %56 = load ptr, ptr %4, align 8, !tbaa !32
  %57 = getelementptr inbounds nuw %struct.aclSelector, ptr %56, i32 0, i32 0
  %58 = load i32, ptr %57, align 8, !tbaa !64
  %59 = and i32 %58, 8
  %60 = icmp ne i32 %59, 0
  br i1 %60, label %61, label %63

61:                                               ; preds = %54
  %62 = load ptr, ptr %3, align 8, !tbaa !95
  call void @addReplyBulkCBuffer(ptr noundef %62, ptr noundef @.str.63, i64 noundef 2)
  br label %92

63:                                               ; preds = %54
  call void @llvm.lifetime.start.p0(i64 8, ptr %10) #14
  %64 = call ptr @sdsempty()
  store ptr %64, ptr %10, align 8, !tbaa !5
  %65 = load ptr, ptr %4, align 8, !tbaa !32
  %66 = getelementptr inbounds nuw %struct.aclSelector, ptr %65, i32 0, i32 4
  %67 = load ptr, ptr %66, align 8, !tbaa !68
  call void @listRewind(ptr noundef %67, ptr noundef %5)
  br label %68

68:                                               ; preds = %85, %63
  %69 = call ptr @listNext(ptr noundef %5)
  store ptr %69, ptr %6, align 8, !tbaa !94
  %70 = icmp ne ptr %69, null
  br i1 %70, label %71, label %89

71:                                               ; preds = %68
  call void @llvm.lifetime.start.p0(i64 8, ptr %11) #14
  %72 = load ptr, ptr %6, align 8, !tbaa !94
  %73 = getelementptr inbounds nuw %struct.listNode, ptr %72, i32 0, i32 2
  %74 = load ptr, ptr %73, align 8, !tbaa !86
  store ptr %74, ptr %11, align 8, !tbaa !5
  %75 = load ptr, ptr %6, align 8, !tbaa !94
  %76 = load ptr, ptr %4, align 8, !tbaa !32
  %77 = getelementptr inbounds nuw %struct.aclSelector, ptr %76, i32 0, i32 4
  %78 = load ptr, ptr %77, align 8, !tbaa !68
  %79 = getelementptr inbounds nuw %struct.list, ptr %78, i32 0, i32 0
  %80 = load ptr, ptr %79, align 8, !tbaa !85
  %81 = icmp ne ptr %75, %80
  br i1 %81, label %82, label %85

82:                                               ; preds = %71
  %83 = load ptr, ptr %10, align 8, !tbaa !5
  %84 = call ptr @sdscat(ptr noundef %83, ptr noundef @.str.40)
  store ptr %84, ptr %10, align 8, !tbaa !5
  br label %85

85:                                               ; preds = %82, %71
  %86 = load ptr, ptr %10, align 8, !tbaa !5
  %87 = load ptr, ptr %11, align 8, !tbaa !5
  %88 = call ptr (ptr, ptr, ...) @sdscatfmt(ptr noundef %86, ptr noundef @.str.133, ptr noundef %87)
  store ptr %88, ptr %10, align 8, !tbaa !5
  call void @llvm.lifetime.end.p0(i64 8, ptr %11) #14
  br label %68, !llvm.loop !237

89:                                               ; preds = %68
  %90 = load ptr, ptr %3, align 8, !tbaa !95
  %91 = load ptr, ptr %10, align 8, !tbaa !5
  call void @addReplyBulkSds(ptr noundef %90, ptr noundef %91)
  call void @llvm.lifetime.end.p0(i64 8, ptr %10) #14
  br label %92

92:                                               ; preds = %89, %61
  call void @llvm.lifetime.end.p0(i64 8, ptr %7) #14
  call void @llvm.lifetime.end.p0(i64 8, ptr %6) #14
  call void @llvm.lifetime.end.p0(i64 16, ptr %5) #14
  ret i32 3
}