; Function Attrs: nounwind uwtable
define dso_local noundef i32 @aclAddReplySelectorDescription(ptr noundef %0, ptr noundef readonly captures(none) %1) local_unnamed_addr #0 {
  %3 = alloca %struct.listIter, align 8
  call void @llvm.lifetime.start.p0(i64 16, ptr nonnull %3) #25
  tail call void @addReplyBulkCString(ptr noundef %0, ptr noundef nonnull @.str.130) #25
  %4 = tail call ptr @ACLDescribeSelectorCommandRules(ptr noundef %1)
  tail call void @addReplyBulkSds(ptr noundef %0, ptr noundef %4) #25
  tail call void @addReplyBulkCString(ptr noundef %0, ptr noundef nonnull @.str.131) #25
  %5 = load i32, ptr %1, align 8, !tbaa !61
  %6 = and i32 %5, 2
  %.not = icmp eq i32 %6, 0
  br i1 %.not, label %8, label %7

7:                                                ; preds = %2
  tail call void @addReplyBulkCBuffer(ptr noundef %0, ptr noundef nonnull @.str.61, i64 noundef 2) #25
  br label %23

8:                                                ; preds = %2
  %9 = tail call ptr @sdsempty() #25
  %10 = getelementptr inbounds nuw i8, ptr %1, i64 144
  %11 = load ptr, ptr %10, align 8, !tbaa !64
  call void @listRewind(ptr noundef %11, ptr noundef nonnull %3) #25
  %12 = call ptr @listNext(ptr noundef nonnull %3) #25
  %.not3237 = icmp eq ptr %12, null
  br i1 %.not3237, label %._crit_edge, label %.lr.ph

.lr.ph:                                           ; preds = %8, %20
  %13 = phi ptr [ %22, %20 ], [ %12, %8 ]
  %.02838 = phi ptr [ %21, %20 ], [ %9, %8 ]
  %14 = getelementptr inbounds nuw i8, ptr %13, i64 16
  %15 = load ptr, ptr %14, align 8, !tbaa !85
  %16 = load ptr, ptr %10, align 8, !tbaa !64
  %17 = load ptr, ptr %16, align 8, !tbaa !84
  %.not33 = icmp eq ptr %13, %17
  br i1 %.not33, label %20, label %18

18:                                               ; preds = %.lr.ph
  %19 = call ptr @sdscat(ptr noundef %.02838, ptr noundef nonnull @.str.40) #25
  br label %20

20:                                               ; preds = %18, %.lr.ph
  %.129 = phi ptr [ %19, %18 ], [ %.02838, %.lr.ph ]
  %21 = call ptr @sdsCatPatternString(ptr noundef %.129, ptr noundef %15)
  %22 = call ptr @listNext(ptr noundef nonnull %3) #25
  %.not32 = icmp eq ptr %22, null
  br i1 %.not32, label %._crit_edge, label %.lr.ph, !llvm.loop !218

._crit_edge:                                      ; preds = %20, %8
  %.028.lcssa = phi ptr [ %9, %8 ], [ %21, %20 ]
  call void @addReplyBulkSds(ptr noundef %0, ptr noundef %.028.lcssa) #25
  br label %23

23:                                               ; preds = %._crit_edge, %7
  call void @addReplyBulkCString(ptr noundef %0, ptr noundef nonnull @.str.132) #25
  %24 = load i32, ptr %1, align 8, !tbaa !61
  %25 = and i32 %24, 8
  %.not34 = icmp eq i32 %25, 0
  br i1 %.not34, label %27, label %26

26:                                               ; preds = %23
  call void @addReplyBulkCBuffer(ptr noundef %0, ptr noundef nonnull @.str.63, i64 noundef 2) #25
  br label %42

27:                                               ; preds = %23
  %28 = call ptr @sdsempty() #25
  %29 = getelementptr inbounds nuw i8, ptr %1, i64 152
  %30 = load ptr, ptr %29, align 8, !tbaa !65
  call void @listRewind(ptr noundef %30, ptr noundef nonnull %3) #25
  %31 = call ptr @listNext(ptr noundef nonnull %3) #25
  %.not3539 = icmp eq ptr %31, null
  br i1 %.not3539, label %._crit_edge43, label %.lr.ph42

.lr.ph42:                                         ; preds = %27, %39
  %32 = phi ptr [ %41, %39 ], [ %31, %27 ]
  %.040 = phi ptr [ %40, %39 ], [ %28, %27 ]
  %33 = getelementptr inbounds nuw i8, ptr %32, i64 16
  %34 = load ptr, ptr %33, align 8, !tbaa !85
  %35 = load ptr, ptr %29, align 8, !tbaa !65
  %36 = load ptr, ptr %35, align 8, !tbaa !84
  %.not36 = icmp eq ptr %32, %36
  br i1 %.not36, label %39, label %37

37:                                               ; preds = %.lr.ph42
  %38 = call ptr @sdscat(ptr noundef %.040, ptr noundef nonnull @.str.40) #25
  br label %39

39:                                               ; preds = %37, %.lr.ph42
  %.1 = phi ptr [ %38, %37 ], [ %.040, %.lr.ph42 ]
  %40 = call ptr (ptr, ptr, ...) @sdscatfmt(ptr noundef %.1, ptr noundef nonnull @.str.133, ptr noundef %34) #25
  %41 = call ptr @listNext(ptr noundef nonnull %3) #25
  %.not35 = icmp eq ptr %41, null
  br i1 %.not35, label %._crit_edge43, label %.lr.ph42, !llvm.loop !219

._crit_edge43:                                    ; preds = %39, %27
  %.0.lcssa = phi ptr [ %28, %27 ], [ %40, %39 ]
  call void @addReplyBulkSds(ptr noundef %0, ptr noundef %.0.lcssa) #25
  br label %42

42:                                               ; preds = %._crit_edge43, %26
  call void @llvm.lifetime.end.p0(i64 16, ptr nonnull %3) #25
  ret i32 3
}